target datalayout = "e-m:e-p270:32:32-p271:32:32-p272:64:64-i64:64-i128:128-f80:128-n8:16:32:64-S128"
target triple = "x86_64-pc-linux-gnu"

@.str.5 = private unnamed_addr constant [2 x i8] c"\0A\00", align 1
@.str.6 = private unnamed_addr constant [39 x i8] c"    pmux2shiftx [options] [selection]\0A\00", align 1
@.str.7 = private unnamed_addr constant [52 x i8] c"This pass transforms $pmux cells to $shiftx cells.\0A\00", align 1
@.str.8 = private unnamed_addr constant [13 x i8] c"    -v, -vv\0A\00", align 1
@.str.9 = private unnamed_addr constant [24 x i8] c"        verbose output\0A\00", align 1
@.str.10 = private unnamed_addr constant [31 x i8] c"    -min_density <percentage>\0A\00", align 1
@.str.11 = private unnamed_addr constant [55 x i8] c"        specifies the minimum density for the shifter\0A\00", align 1
@.str.12 = private unnamed_addr constant [21 x i8] c"        default: 50\0A\00", align 1
@.str.13 = private unnamed_addr constant [24 x i8] c"    -min_choices <int>\0A\00", align 1
@.str.14 = private unnamed_addr constant [70 x i8] c"        specified the minimum number of choices for a control signal\0A\00", align 1
@.str.15 = private unnamed_addr constant [20 x i8] c"        default: 3\0A\00", align 1
@.str.16 = private unnamed_addr constant [32 x i8] c"    -onehot ignore|pmux|shiftx\0A\00", align 1
@.str.17 = private unnamed_addr constant [61 x i8] c"        select strategy for one-hot encoded control signals\0A\00", align 1
@.str.18 = private unnamed_addr constant [23 x i8] c"        default: pmux\0A\00", align 1
@.str.19 = private unnamed_addr constant [14 x i8] c"    -norange\0A\00", align 1
@.str.20 = private unnamed_addr constant [53 x i8] c"        disable $sub inference for \22range decoders\22\0A\00", align 1

; Function Attrs: mustprogress uwtable
define internal void @_ZN12_GLOBAL__N_115Pmux2ShiftxPass4helpEv(ptr noundef nonnull align 8 dereferenceable(104) %0) unnamed_addr #4 align 2 {
  %2 = alloca ptr, align 8
  store ptr %0, ptr %2, align 8, !tbaa !6
  call void (ptr, ...) @_ZN5Yosys3logEPKcz(ptr noundef @.str.5)
  call void (ptr, ...) @_ZN5Yosys3logEPKcz(ptr noundef @.str.6)
  call void (ptr, ...) @_ZN5Yosys3logEPKcz(ptr noundef @.str.5)
  call void (ptr, ...) @_ZN5Yosys3logEPKcz(ptr noundef @.str.7)
  call void (ptr, ...) @_ZN5Yosys3logEPKcz(ptr noundef @.str.5)
  call void (ptr, ...) @_ZN5Yosys3logEPKcz(ptr noundef @.str.8)
  call void (ptr, ...) @_ZN5Yosys3logEPKcz(ptr noundef @.str.9)
  call void (ptr, ...) @_ZN5Yosys3logEPKcz(ptr noundef @.str.5)
  call void (ptr, ...) @_ZN5Yosys3logEPKcz(ptr noundef @.str.10)
  call void (ptr, ...) @_ZN5Yosys3logEPKcz(ptr noundef @.str.11)
  call void (ptr, ...) @_ZN5Yosys3logEPKcz(ptr noundef @.str.12)
  call void (ptr, ...) @_ZN5Yosys3logEPKcz(ptr noundef @.str.5)
  call void (ptr, ...) @_ZN5Yosys3logEPKcz(ptr noundef @.str.13)
  call void (ptr, ...) @_ZN5Yosys3logEPKcz(ptr noundef @.str.14)
  call void (ptr, ...) @_ZN5Yosys3logEPKcz(ptr noundef @.str.15)
  call void (ptr, ...) @_ZN5Yosys3logEPKcz(ptr noundef @.str.5)
  call void (ptr, ...) @_ZN5Yosys3logEPKcz(ptr noundef @.str.16)
  call void (ptr, ...) @_ZN5Yosys3logEPKcz(ptr noundef @.str.17)
  call void (ptr, ...) @_ZN5Yosys3logEPKcz(ptr noundef @.str.18)
  call void (ptr, ...) @_ZN5Yosys3logEPKcz(ptr noundef @.str.5)
  call void (ptr, ...) @_ZN5Yosys3logEPKcz(ptr noundef @.str.19)
  call void (ptr, ...) @_ZN5Yosys3logEPKcz(ptr noundef @.str.20)
  call void (ptr, ...) @_ZN5Yosys3logEPKcz(ptr noundef @.str.5)
  ret void
}